target datalayout = "e-m:e-p270:32:32-p271:32:32-p272:64:64-i64:64-i128:128-f80:128-n8:16:32:64-S128"
target triple = "x86_64-pc-linux-gnu"

; Function Attrs: nounwind uwtable
define internal void @map_val_34_to_20(ptr noundef %0) #0 {
  %2 = alloca ptr, align 8
  store ptr %0, ptr %2, align 8, !tbaa !9
  %3 = load ptr, ptr %2, align 8, !tbaa !9
  %4 = getelementptr inbounds float, ptr %3, i64 0
  %5 = load float, ptr %4, align 4, !tbaa !19
  %6 = load ptr, ptr %2, align 8, !tbaa !9
  %7 = getelementptr inbounds float, ptr %6, i64 1
  %8 = load float, ptr %7, align 4, !tbaa !19
  %9 = call nsz float @llvm.fmuladd.f32(float 2.000000e+00, float %5, float %8)
  %10 = fmul nsz float %9, 0x3FD5555560000000
  %11 = load ptr, ptr %2, align 8, !tbaa !9
  %12 = getelementptr inbounds float, ptr %11, i64 0
  store float %10, ptr %12, align 4, !tbaa !19
  %13 = load ptr, ptr %2, align 8, !tbaa !9
  %14 = getelementptr inbounds float, ptr %13, i64 1
  %15 = load float, ptr %14, align 4, !tbaa !19
  %16 = load ptr, ptr %2, align 8, !tbaa !9
  %17 = getelementptr inbounds float, ptr %16, i64 2
  %18 = load float, ptr %17, align 4, !tbaa !19
  %19 = call nsz float @llvm.fmuladd.f32(float 2.000000e+00, float %18, float %15)
  %20 = fmul nsz float %19, 0x3FD5555560000000
  %21 = load ptr, ptr %2, align 8, !tbaa !9
  %22 = getelementptr inbounds float, ptr %21, i64 1
  store float %20, ptr %22, align 4, !tbaa !19
  %23 = load ptr, ptr %2, align 8, !tbaa !9
  %24 = getelementptr inbounds float, ptr %23, i64 3
  %25 = load float, ptr %24, align 4, !tbaa !19
  %26 = load ptr, ptr %2, align 8, !tbaa !9
  %27 = getelementptr inbounds float, ptr %26, i64 4
  %28 = load float, ptr %27, align 4, !tbaa !19
  %29 = call nsz float @llvm.fmuladd.f32(float 2.000000e+00, float %25, float %28)
  %30 = fmul nsz float %29, 0x3FD5555560000000
  %31 = load ptr, ptr %2, align 8, !tbaa !9
  %32 = getelementptr inbounds float, ptr %31, i64 2
  store float %30, ptr %32, align 4, !tbaa !19
  %33 = load ptr, ptr %2, align 8, !tbaa !9
  %34 = getelementptr inbounds float, ptr %33, i64 4
  %35 = load float, ptr %34, align 4, !tbaa !19
  %36 = load ptr, ptr %2, align 8, !tbaa !9
  %37 = getelementptr inbounds float, ptr %36, i64 5
  %38 = load float, ptr %37, align 4, !tbaa !19
  %39 = call nsz float @llvm.fmuladd.f32(float 2.000000e+00, float %38, float %35)
  %40 = fmul nsz float %39, 0x3FD5555560000000
  %41 = load ptr, ptr %2, align 8, !tbaa !9
  %42 = getelementptr inbounds float, ptr %41, i64 3
  store float %40, ptr %42, align 4, !tbaa !19
  %43 = load ptr, ptr %2, align 8, !tbaa !9
  %44 = getelementptr inbounds float, ptr %43, i64 6
  %45 = load float, ptr %44, align 4, !tbaa !19
  %46 = load ptr, ptr %2, align 8, !tbaa !9
  %47 = getelementptr inbounds float, ptr %46, i64 7
  %48 = load float, ptr %47, align 4, !tbaa !19
  %49 = fadd nsz float %45, %48
  %50 = fmul nsz float %49, 5.000000e-01
  %51 = load ptr, ptr %2, align 8, !tbaa !9
  %52 = getelementptr inbounds float, ptr %51, i64 4
  store float %50, ptr %52, align 4, !tbaa !19
  %53 = load ptr, ptr %2, align 8, !tbaa !9
  %54 = getelementptr inbounds float, ptr %53, i64 8
  %55 = load float, ptr %54, align 4, !tbaa !19
  %56 = load ptr, ptr %2, align 8, !tbaa !9
  %57 = getelementptr inbounds float, ptr %56, i64 9
  %58 = load float, ptr %57, align 4, !tbaa !19
  %59 = fadd nsz float %55, %58
  %60 = fmul nsz float %59, 5.000000e-01
  %61 = load ptr, ptr %2, align 8, !tbaa !9
  %62 = getelementptr inbounds float, ptr %61, i64 5
  store float %60, ptr %62, align 4, !tbaa !19
  %63 = load ptr, ptr %2, align 8, !tbaa !9
  %64 = getelementptr inbounds float, ptr %63, i64 10
  %65 = load float, ptr %64, align 4, !tbaa !19
  %66 = load ptr, ptr %2, align 8, !tbaa !9
  %67 = getelementptr inbounds float, ptr %66, i64 6
  store float %65, ptr %67, align 4, !tbaa !19
  %68 = load ptr, ptr %2, align 8, !tbaa !9
  %69 = getelementptr inbounds float, ptr %68, i64 11
  %70 = load float, ptr %69, align 4, !tbaa !19
  %71 = load ptr, ptr %2, align 8, !tbaa !9
  %72 = getelementptr inbounds float, ptr %71, i64 7
  store float %70, ptr %72, align 4, !tbaa !19
  %73 = load ptr, ptr %2, align 8, !tbaa !9
  %74 = getelementptr inbounds float, ptr %73, i64 12
  %75 = load float, ptr %74, align 4, !tbaa !19
  %76 = load ptr, ptr %2, align 8, !tbaa !9
  %77 = getelementptr inbounds float, ptr %76, i64 13
  %78 = load float, ptr %77, align 4, !tbaa !19
  %79 = fadd nsz float %75, %78
  %80 = fmul nsz float %79, 5.000000e-01
  %81 = load ptr, ptr %2, align 8, !tbaa !9
  %82 = getelementptr inbounds float, ptr %81, i64 8
  store float %80, ptr %82, align 4, !tbaa !19
  %83 = load ptr, ptr %2, align 8, !tbaa !9
  %84 = getelementptr inbounds float, ptr %83, i64 14
  %85 = load float, ptr %84, align 4, !tbaa !19
  %86 = load ptr, ptr %2, align 8, !tbaa !9
  %87 = getelementptr inbounds float, ptr %86, i64 15
  %88 = load float, ptr %87, align 4, !tbaa !19
  %89 = fadd nsz float %85, %88
  %90 = fmul nsz float %89, 5.000000e-01
  %91 = load ptr, ptr %2, align 8, !tbaa !9
  %92 = getelementptr inbounds float, ptr %91, i64 9
  store float %90, ptr %92, align 4, !tbaa !19
  %93 = load ptr, ptr %2, align 8, !tbaa !9
  %94 = getelementptr inbounds float, ptr %93, i64 16
  %95 = load float, ptr %94, align 4, !tbaa !19
  %96 = load ptr, ptr %2, align 8, !tbaa !9
  %97 = getelementptr inbounds float, ptr %96, i64 10
  store float %95, ptr %97, align 4, !tbaa !19
  %98 = load ptr, ptr %2, align 8, !tbaa !9
  %99 = getelementptr inbounds float, ptr %98, i64 17
  %100 = load float, ptr %99, align 4, !tbaa !19
  %101 = load ptr, ptr %2, align 8, !tbaa !9
  %102 = getelementptr inbounds float, ptr %101, i64 11
  store float %100, ptr %102, align 4, !tbaa !19
  %103 = load ptr, ptr %2, align 8, !tbaa !9
  %104 = getelementptr inbounds float, ptr %103, i64 18
  %105 = load float, ptr %104, align 4, !tbaa !19
  %106 = load ptr, ptr %2, align 8, !tbaa !9
  %107 = getelementptr inbounds float, ptr %106, i64 12
  store float %105, ptr %107, align 4, !tbaa !19
  %108 = load ptr, ptr %2, align 8, !tbaa !9
  %109 = getelementptr inbounds float, ptr %108, i64 19
  %110 = load float, ptr %109, align 4, !tbaa !19
  %111 = load ptr, ptr %2, align 8, !tbaa !9
  %112 = getelementptr inbounds float, ptr %111, i64 13
  store float %110, ptr %112, align 4, !tbaa !19
  %113 = load ptr, ptr %2, align 8, !tbaa !9
  %114 = getelementptr inbounds float, ptr %113, i64 20
  %115 = load float, ptr %114, align 4, !tbaa !19
  %116 = load ptr, ptr %2, align 8, !tbaa !9
  %117 = getelementptr inbounds float, ptr %116, i64 21
  %118 = load float, ptr %117, align 4, !tbaa !19
  %119 = fadd nsz float %115, %118
  %120 = fmul nsz float %119, 5.000000e-01
  %121 = load ptr, ptr %2, align 8, !tbaa !9
  %122 = getelementptr inbounds float, ptr %121, i64 14
  store float %120, ptr %122, align 4, !tbaa !19
  %123 = load ptr, ptr %2, align 8, !tbaa !9
  %124 = getelementptr inbounds float, ptr %123, i64 22
  %125 = load float, ptr %124, align 4, !tbaa !19
  %126 = load ptr, ptr %2, align 8, !tbaa !9
  %127 = getelementptr inbounds float, ptr %126, i64 23
  %128 = load float, ptr %127, align 4, !tbaa !19
  %129 = fadd nsz float %125, %128
  %130 = fmul nsz float %129, 5.000000e-01
  %131 = load ptr, ptr %2, align 8, !tbaa !9
  %132 = getelementptr inbounds float, ptr %131, i64 15
  store float %130, ptr %132, align 4, !tbaa !19
  %133 = load ptr, ptr %2, align 8, !tbaa !9
  %134 = getelementptr inbounds float, ptr %133, i64 24
  %135 = load float, ptr %134, align 4, !tbaa !19
  %136 = load ptr, ptr %2, align 8, !tbaa !9
  %137 = getelementptr inbounds float, ptr %136, i64 25
  %138 = load float, ptr %137, align 4, !tbaa !19
  %139 = fadd nsz float %135, %138
  %140 = fmul nsz float %139, 5.000000e-01
  %141 = load ptr, ptr %2, align 8, !tbaa !9
  %142 = getelementptr inbounds float, ptr %141, i64 16
  store float %140, ptr %142, align 4, !tbaa !19
  %143 = load ptr, ptr %2, align 8, !tbaa !9
  %144 = getelementptr inbounds float, ptr %143, i64 26
  %145 = load float, ptr %144, align 4, !tbaa !19
  %146 = load ptr, ptr %2, align 8, !tbaa !9
  %147 = getelementptr inbounds float, ptr %146, i64 27
  %148 = load float, ptr %147, align 4, !tbaa !19
  %149 = fadd nsz float %145, %148
  %150 = fmul nsz float %149, 5.000000e-01
  %151 = load ptr, ptr %2, align 8, !tbaa !9
  %152 = getelementptr inbounds float, ptr %151, i64 17
  store float %150, ptr %152, align 4, !tbaa !19
  %153 = load ptr, ptr %2, align 8, !tbaa !9
  %154 = getelementptr inbounds float, ptr %153, i64 28
  %155 = load float, ptr %154, align 4, !tbaa !19
  %156 = load ptr, ptr %2, align 8, !tbaa !9
  %157 = getelementptr inbounds float, ptr %156, i64 29
  %158 = load float, ptr %157, align 4, !tbaa !19
  %159 = fadd nsz float %155, %158
  %160 = load ptr, ptr %2, align 8, !tbaa !9
  %161 = getelementptr inbounds float, ptr %160, i64 30
  %162 = load float, ptr %161, align 4, !tbaa !19
  %163 = fadd nsz float %159, %162
  %164 = load ptr, ptr %2, align 8, !tbaa !9
  %165 = getelementptr inbounds float, ptr %164, i64 31
  %166 = load float, ptr %165, align 4, !tbaa !19
  %167 = fadd nsz float %163, %166
  %168 = fmul nsz float %167, 2.500000e-01
  %169 = load ptr, ptr %2, align 8, !tbaa !9
  %170 = getelementptr inbounds float, ptr %169, i64 18
  store float %168, ptr %170, align 4, !tbaa !19
  %171 = load ptr, ptr %2, align 8, !tbaa !9
  %172 = getelementptr inbounds float, ptr %171, i64 32
  %173 = load float, ptr %172, align 4, !tbaa !19
  %174 = load ptr, ptr %2, align 8, !tbaa !9
  %175 = getelementptr inbounds float, ptr %174, i64 33
  %176 = load float, ptr %175, align 4, !tbaa !19
  %177 = fadd nsz float %173, %176
  %178 = fmul nsz float %177, 5.000000e-01
  %179 = load ptr, ptr %2, align 8, !tbaa !9
  %180 = getelementptr inbounds float, ptr %179, i64 19
  store float %178, ptr %180, align 4, !tbaa !19
  ret void
}