; Function Attrs: mustprogress nofree norecurse nosync nounwind willreturn memory(argmem: readwrite) uwtable
define internal fastcc void @map_val_34_to_20(ptr noundef captures(none) %0) unnamed_addr #8 {
  %2 = load float, ptr %0, align 4, !tbaa !13
  %3 = getelementptr inbounds nuw i8, ptr %0, i64 4
  %4 = load float, ptr %3, align 4, !tbaa !13
  %5 = tail call nsz float @llvm.fmuladd.f32(float %2, float 2.000000e+00, float %4)
  %6 = fmul nsz float %5, 0x3FD5555560000000
  store float %6, ptr %0, align 4, !tbaa !13
  %7 = getelementptr inbounds nuw i8, ptr %0, i64 8
  %8 = load float, ptr %7, align 4, !tbaa !13
  %9 = tail call nsz float @llvm.fmuladd.f32(float %8, float 2.000000e+00, float %4)
  %10 = fmul nsz float %9, 0x3FD5555560000000
  store float %10, ptr %3, align 4, !tbaa !13
  %11 = getelementptr inbounds nuw i8, ptr %0, i64 12
  %12 = load float, ptr %11, align 4, !tbaa !13
  %13 = getelementptr inbounds nuw i8, ptr %0, i64 16
  %14 = load float, ptr %13, align 4, !tbaa !13
  %15 = tail call nsz float @llvm.fmuladd.f32(float %12, float 2.000000e+00, float %14)
  %16 = fmul nsz float %15, 0x3FD5555560000000
  store float %16, ptr %7, align 4, !tbaa !13
  %17 = getelementptr inbounds nuw i8, ptr %0, i64 20
  %18 = load float, ptr %17, align 4, !tbaa !13
  %19 = tail call nsz float @llvm.fmuladd.f32(float %18, float 2.000000e+00, float %14)
  %20 = fmul nsz float %19, 0x3FD5555560000000
  store float %20, ptr %11, align 4, !tbaa !13
  %21 = getelementptr inbounds nuw i8, ptr %0, i64 24
  %22 = load float, ptr %21, align 4, !tbaa !13
  %23 = getelementptr inbounds nuw i8, ptr %0, i64 28
  %24 = load float, ptr %23, align 4, !tbaa !13
  %25 = fadd nsz float %22, %24
  %26 = fmul nsz float %25, 5.000000e-01
  store float %26, ptr %13, align 4, !tbaa !13
  %27 = getelementptr inbounds nuw i8, ptr %0, i64 32
  %28 = load float, ptr %27, align 4, !tbaa !13
  %29 = getelementptr inbounds nuw i8, ptr %0, i64 36
  %30 = load float, ptr %29, align 4, !tbaa !13
  %31 = fadd nsz float %28, %30
  %32 = fmul nsz float %31, 5.000000e-01
  store float %32, ptr %17, align 4, !tbaa !13
  %33 = getelementptr inbounds nuw i8, ptr %0, i64 40
  %34 = load float, ptr %33, align 4, !tbaa !13
  store float %34, ptr %21, align 4, !tbaa !13
  %35 = getelementptr inbounds nuw i8, ptr %0, i64 44
  %36 = load float, ptr %35, align 4, !tbaa !13
  store float %36, ptr %23, align 4, !tbaa !13
  %37 = getelementptr inbounds nuw i8, ptr %0, i64 48
  %38 = load float, ptr %37, align 4, !tbaa !13
  %39 = getelementptr inbounds nuw i8, ptr %0, i64 52
  %40 = load float, ptr %39, align 4, !tbaa !13
  %41 = fadd nsz float %38, %40
  %42 = fmul nsz float %41, 5.000000e-01
  store float %42, ptr %27, align 4, !tbaa !13
  %43 = getelementptr inbounds nuw i8, ptr %0, i64 56
  %44 = load float, ptr %43, align 4, !tbaa !13
  %45 = getelementptr inbounds nuw i8, ptr %0, i64 60
  %46 = load float, ptr %45, align 4, !tbaa !13
  %47 = fadd nsz float %44, %46
  %48 = fmul nsz float %47, 5.000000e-01
  store float %48, ptr %29, align 4, !tbaa !13
  %49 = getelementptr inbounds nuw i8, ptr %0, i64 64
  %50 = load float, ptr %49, align 4, !tbaa !13
  store float %50, ptr %33, align 4, !tbaa !13
  %51 = getelementptr inbounds nuw i8, ptr %0, i64 68
  %52 = load float, ptr %51, align 4, !tbaa !13
  store float %52, ptr %35, align 4, !tbaa !13
  %53 = getelementptr inbounds nuw i8, ptr %0, i64 72
  %54 = load float, ptr %53, align 4, !tbaa !13
  store float %54, ptr %37, align 4, !tbaa !13
  %55 = getelementptr inbounds nuw i8, ptr %0, i64 76
  %56 = load float, ptr %55, align 4, !tbaa !13
  store float %56, ptr %39, align 4, !tbaa !13
  %57 = getelementptr inbounds nuw i8, ptr %0, i64 80
  %58 = load float, ptr %57, align 4, !tbaa !13
  %59 = getelementptr inbounds nuw i8, ptr %0, i64 84
  %60 = load float, ptr %59, align 4, !tbaa !13
  %61 = fadd nsz float %58, %60
  %62 = fmul nsz float %61, 5.000000e-01
  store float %62, ptr %43, align 4, !tbaa !13
  %63 = getelementptr inbounds nuw i8, ptr %0, i64 88
  %64 = load float, ptr %63, align 4, !tbaa !13
  %65 = getelementptr inbounds nuw i8, ptr %0, i64 92
  %66 = load float, ptr %65, align 4, !tbaa !13
  %67 = fadd nsz float %64, %66
  %68 = fmul nsz float %67, 5.000000e-01
  store float %68, ptr %45, align 4, !tbaa !13
  %69 = getelementptr inbounds nuw i8, ptr %0, i64 96
  %70 = load float, ptr %69, align 4, !tbaa !13
  %71 = getelementptr inbounds nuw i8, ptr %0, i64 100
  %72 = load float, ptr %71, align 4, !tbaa !13
  %73 = fadd nsz float %70, %72
  %74 = fmul nsz float %73, 5.000000e-01
  store float %74, ptr %49, align 4, !tbaa !13
  %75 = getelementptr inbounds nuw i8, ptr %0, i64 104
  %76 = load float, ptr %75, align 4, !tbaa !13
  %77 = getelementptr inbounds nuw i8, ptr %0, i64 108
  %78 = load float, ptr %77, align 4, !tbaa !13
  %79 = fadd nsz float %76, %78
  %80 = fmul nsz float %79, 5.000000e-01
  store float %80, ptr %51, align 4, !tbaa !13
  %81 = getelementptr inbounds nuw i8, ptr %0, i64 112
  %82 = load float, ptr %81, align 4, !tbaa !13
  %83 = getelementptr inbounds nuw i8, ptr %0, i64 116
  %84 = load float, ptr %83, align 4, !tbaa !13
  %85 = fadd nsz float %82, %84
  %86 = getelementptr inbounds nuw i8, ptr %0, i64 120
  %87 = load float, ptr %86, align 4, !tbaa !13
  %88 = fadd nsz float %85, %87
  %89 = getelementptr inbounds nuw i8, ptr %0, i64 124
  %90 = load float, ptr %89, align 4, !tbaa !13
  %91 = fadd nsz float %88, %90
  %92 = fmul nsz float %91, 2.500000e-01
  store float %92, ptr %53, align 4, !tbaa !13
  %93 = getelementptr inbounds nuw i8, ptr %0, i64 128
  %94 = load float, ptr %93, align 4, !tbaa !13
  %95 = getelementptr inbounds nuw i8, ptr %0, i64 132
  %96 = load float, ptr %95, align 4, !tbaa !13
  %97 = fadd nsz float %94, %96
  %98 = fmul nsz float %97, 5.000000e-01
  store float %98, ptr %55, align 4, !tbaa !13
  ret void
}